target datalayout = "e-m:e-p270:32:32-p271:32:32-p272:64:64-i64:64-i128:128-f80:128-n8:16:32:64-S128"
target triple = "x86_64-pc-linux-gnu"

%struct.YUV2RGBParam = type { i8, i16, i16, i16, i16, i16 }

; Function Attrs: nounwind uwtable
define internal zeroext i8 @clampU8(i32 noundef %0) #0 {
  %2 = alloca i32, align 4
  store i32 %0, ptr %2, align 4
  %3 = load i32, ptr %2, align 4
  %4 = add nsw i32 %3, 8192
  %5 = ashr i32 %4, 6
  %6 = and i32 %5, 511
  %7 = sext i32 %6 to i64
  %8 = getelementptr inbounds [512 x i8], ptr @clampU8.lut, i64 0, i64 %7
  %9 = load i8, ptr %8, align 1
  ret i8 %9
}

; Function Attrs: nounwind uwtable
define hidden void @yuv422_rgb24_std(i32 noundef %0, i32 noundef %1, ptr noundef %2, ptr noundef %3, ptr noundef %4, i32 noundef %5, i32 noundef %6, ptr noundef %7, i32 noundef %8, i32 noundef %9) #0 {
  %11 = alloca i32, align 4
  %12 = alloca i32, align 4
  %13 = alloca ptr, align 8
  %14 = alloca ptr, align 8
  %15 = alloca ptr, align 8
  %16 = alloca i32, align 4
  %17 = alloca i32, align 4
  %18 = alloca ptr, align 8
  %19 = alloca i32, align 4
  %20 = alloca i32, align 4
  %21 = alloca ptr, align 8
  %22 = alloca i32, align 4
  %23 = alloca i32, align 4
  %24 = alloca ptr, align 8
  %25 = alloca ptr, align 8
  %26 = alloca ptr, align 8
  %27 = alloca ptr, align 8
  %28 = alloca i32, align 4
  %29 = alloca i32, align 4
  %30 = alloca i32, align 4
  %31 = alloca i32, align 4
  %32 = alloca i32, align 4
  %33 = alloca i32, align 4
  %34 = alloca i32, align 4
  %35 = alloca i32, align 4
  %36 = alloca i32, align 4
  %37 = alloca i32, align 4
  %38 = alloca i32, align 4
  %39 = alloca i32, align 4
  store i32 %0, ptr %11, align 4
  store i32 %1, ptr %12, align 4
  store ptr %2, ptr %13, align 8
  store ptr %3, ptr %14, align 8
  store ptr %4, ptr %15, align 8
  store i32 %5, ptr %16, align 4
  store i32 %6, ptr %17, align 4
  store ptr %7, ptr %18, align 8
  store i32 %8, ptr %19, align 4
  store i32 %9, ptr %20, align 4
  call void @llvm.lifetime.start.p0(i64 8, ptr %21) #2
  %40 = load i32, ptr %20, align 4
  %41 = zext i32 %40 to i64
  %42 = getelementptr inbounds nuw [5 x %struct.YUV2RGBParam], ptr @YUV2RGB, i64 0, i64 %41
  store ptr %42, ptr %21, align 8
  %43 = load i32, ptr %16, align 4
  %44 = zext i32 %43 to i64
  %45 = udiv i64 %44, 1
  %46 = trunc i64 %45 to i32
  store i32 %46, ptr %16, align 4
  %47 = load i32, ptr %17, align 4
  %48 = zext i32 %47 to i64
  %49 = udiv i64 %48, 1
  %50 = trunc i64 %49 to i32
  store i32 %50, ptr %17, align 4
  call void @llvm.lifetime.start.p0(i64 4, ptr %22) #2
  call void @llvm.lifetime.start.p0(i64 4, ptr %23) #2
  store i32 0, ptr %23, align 4
  br label %51

51:                                               ; preds = %273, %10
  %52 = load i32, ptr %23, align 4
  %53 = load i32, ptr %12, align 4
  %54 = sub i32 %53, 0
  %55 = icmp ult i32 %52, %54
  br i1 %55, label %56, label %276

56:                                               ; preds = %51
  call void @llvm.lifetime.start.p0(i64 8, ptr %24) #2
  %57 = load ptr, ptr %13, align 8
  %58 = load i32, ptr %23, align 4
  %59 = load i32, ptr %16, align 4
  %60 = mul i32 %58, %59
  %61 = zext i32 %60 to i64
  %62 = getelementptr inbounds nuw i8, ptr %57, i64 %61
  store ptr %62, ptr %24, align 8
  call void @llvm.lifetime.start.p0(i64 8, ptr %25) #2
  %63 = load ptr, ptr %14, align 8
  %64 = load i32, ptr %23, align 4
  %65 = udiv i32 %64, 1
  %66 = load i32, ptr %17, align 4
  %67 = mul i32 %65, %66
  %68 = zext i32 %67 to i64
  %69 = getelementptr inbounds nuw i8, ptr %63, i64 %68
  store ptr %69, ptr %25, align 8
  call void @llvm.lifetime.start.p0(i64 8, ptr %26) #2
  %70 = load ptr, ptr %15, align 8
  %71 = load i32, ptr %23, align 4
  %72 = udiv i32 %71, 1
  %73 = load i32, ptr %17, align 4
  %74 = mul i32 %72, %73
  %75 = zext i32 %74 to i64
  %76 = getelementptr inbounds nuw i8, ptr %70, i64 %75
  store ptr %76, ptr %26, align 8
  call void @llvm.lifetime.start.p0(i64 8, ptr %27) #2
  %77 = load ptr, ptr %18, align 8
  %78 = load i32, ptr %23, align 4
  %79 = load i32, ptr %19, align 4
  %80 = mul i32 %78, %79
  %81 = zext i32 %80 to i64
  %82 = getelementptr inbounds nuw i8, ptr %77, i64 %81
  store ptr %82, ptr %27, align 8
  store i32 0, ptr %22, align 4
  br label %83

83:                                               ; preds = %196, %56
  %84 = load i32, ptr %22, align 4
  %85 = load i32, ptr %11, align 4
  %86 = sub i32 %85, 1
  %87 = icmp ult i32 %84, %86
  br i1 %87, label %88, label %199

88:                                               ; preds = %83
  call void @llvm.lifetime.start.p0(i64 4, ptr %28) #2
  %89 = load ptr, ptr %25, align 8
  %90 = load i8, ptr %89, align 1
  %91 = zext i8 %90 to i32
  %92 = sub nsw i32 %91, 128
  store i32 %92, ptr %28, align 4
  call void @llvm.lifetime.start.p0(i64 4, ptr %29) #2
  %93 = load ptr, ptr %26, align 8
  %94 = load i8, ptr %93, align 1
  %95 = zext i8 %94 to i32
  %96 = sub nsw i32 %95, 128
  store i32 %96, ptr %29, align 4
  call void @llvm.lifetime.start.p0(i64 4, ptr %30) #2
  %97 = load i32, ptr %29, align 4
  %98 = load ptr, ptr %21, align 8
  %99 = getelementptr inbounds nuw %struct.YUV2RGBParam, ptr %98, i32 0, i32 2
  %100 = load i16, ptr %99, align 2
  %101 = sext i16 %100 to i32
  %102 = mul nsw i32 %97, %101
  store i32 %102, ptr %30, align 4
  call void @llvm.lifetime.start.p0(i64 4, ptr %31) #2
  %103 = load i32, ptr %28, align 4
  %104 = load ptr, ptr %21, align 8
  %105 = getelementptr inbounds nuw %struct.YUV2RGBParam, ptr %104, i32 0, i32 3
  %106 = load i16, ptr %105, align 2
  %107 = sext i16 %106 to i32
  %108 = mul nsw i32 %103, %107
  %109 = load i32, ptr %29, align 4
  %110 = load ptr, ptr %21, align 8
  %111 = getelementptr inbounds nuw %struct.YUV2RGBParam, ptr %110, i32 0, i32 4
  %112 = load i16, ptr %111, align 2
  %113 = sext i16 %112 to i32
  %114 = mul nsw i32 %109, %113
  %115 = add nsw i32 %108, %114
  store i32 %115, ptr %31, align 4
  call void @llvm.lifetime.start.p0(i64 4, ptr %32) #2
  %116 = load i32, ptr %28, align 4
  %117 = load ptr, ptr %21, align 8
  %118 = getelementptr inbounds nuw %struct.YUV2RGBParam, ptr %117, i32 0, i32 5
  %119 = load i16, ptr %118, align 2
  %120 = sext i16 %119 to i32
  %121 = mul nsw i32 %116, %120
  store i32 %121, ptr %32, align 4
  call void @llvm.lifetime.start.p0(i64 4, ptr %33) #2
  %122 = load ptr, ptr %24, align 8
  %123 = getelementptr inbounds i8, ptr %122, i64 0
  %124 = load i8, ptr %123, align 1
  %125 = zext i8 %124 to i32
  %126 = load ptr, ptr %21, align 8
  %127 = getelementptr inbounds nuw %struct.YUV2RGBParam, ptr %126, i32 0, i32 0
  %128 = load i8, ptr %127, align 2
  %129 = zext i8 %128 to i32
  %130 = sub nsw i32 %125, %129
  %131 = load ptr, ptr %21, align 8
  %132 = getelementptr inbounds nuw %struct.YUV2RGBParam, ptr %131, i32 0, i32 1
  %133 = load i16, ptr %132, align 2
  %134 = sext i16 %133 to i32
  %135 = mul nsw i32 %130, %134
  store i32 %135, ptr %33, align 4
  %136 = load i32, ptr %33, align 4
  %137 = load i32, ptr %30, align 4
  %138 = add nsw i32 %136, %137
  %139 = call zeroext i8 @clampU8(i32 noundef %138)
  %140 = load ptr, ptr %27, align 8
  %141 = getelementptr inbounds i8, ptr %140, i64 0
  store i8 %139, ptr %141, align 1
  %142 = load i32, ptr %33, align 4
  %143 = load i32, ptr %31, align 4
  %144 = add nsw i32 %142, %143
  %145 = call zeroext i8 @clampU8(i32 noundef %144)
  %146 = load ptr, ptr %27, align 8
  %147 = getelementptr inbounds i8, ptr %146, i64 1
  store i8 %145, ptr %147, align 1
  %148 = load i32, ptr %33, align 4
  %149 = load i32, ptr %32, align 4
  %150 = add nsw i32 %148, %149
  %151 = call zeroext i8 @clampU8(i32 noundef %150)
  %152 = load ptr, ptr %27, align 8
  %153 = getelementptr inbounds i8, ptr %152, i64 2
  store i8 %151, ptr %153, align 1
  %154 = load ptr, ptr %27, align 8
  %155 = getelementptr inbounds i8, ptr %154, i64 3
  store ptr %155, ptr %27, align 8
  %156 = load ptr, ptr %24, align 8
  %157 = getelementptr inbounds i8, ptr %156, i64 2
  %158 = load i8, ptr %157, align 1
  %159 = zext i8 %158 to i32
  %160 = load ptr, ptr %21, align 8
  %161 = getelementptr inbounds nuw %struct.YUV2RGBParam, ptr %160, i32 0, i32 0
  %162 = load i8, ptr %161, align 2
  %163 = zext i8 %162 to i32
  %164 = sub nsw i32 %159, %163
  %165 = load ptr, ptr %21, align 8
  %166 = getelementptr inbounds nuw %struct.YUV2RGBParam, ptr %165, i32 0, i32 1
  %167 = load i16, ptr %166, align 2
  %168 = sext i16 %167 to i32
  %169 = mul nsw i32 %164, %168
  store i32 %169, ptr %33, align 4
  %170 = load i32, ptr %33, align 4
  %171 = load i32, ptr %30, align 4
  %172 = add nsw i32 %170, %171
  %173 = call zeroext i8 @clampU8(i32 noundef %172)
  %174 = load ptr, ptr %27, align 8
  %175 = getelementptr inbounds i8, ptr %174, i64 0
  store i8 %173, ptr %175, align 1
  %176 = load i32, ptr %33, align 4
  %177 = load i32, ptr %31, align 4
  %178 = add nsw i32 %176, %177
  %179 = call zeroext i8 @clampU8(i32 noundef %178)
  %180 = load ptr, ptr %27, align 8
  %181 = getelementptr inbounds i8, ptr %180, i64 1
  store i8 %179, ptr %181, align 1
  %182 = load i32, ptr %33, align 4
  %183 = load i32, ptr %32, align 4
  %184 = add nsw i32 %182, %183
  %185 = call zeroext i8 @clampU8(i32 noundef %184)
  %186 = load ptr, ptr %27, align 8
  %187 = getelementptr inbounds i8, ptr %186, i64 2
  store i8 %185, ptr %187, align 1
  %188 = load ptr, ptr %27, align 8
  %189 = getelementptr inbounds i8, ptr %188, i64 3
  store ptr %189, ptr %27, align 8
  %190 = load ptr, ptr %24, align 8
  %191 = getelementptr inbounds i8, ptr %190, i64 4
  store ptr %191, ptr %24, align 8
  %192 = load ptr, ptr %25, align 8
  %193 = getelementptr inbounds i8, ptr %192, i64 4
  store ptr %193, ptr %25, align 8
  %194 = load ptr, ptr %26, align 8
  %195 = getelementptr inbounds i8, ptr %194, i64 4
  store ptr %195, ptr %26, align 8
  call void @llvm.lifetime.end.p0(i64 4, ptr %33) #2
  call void @llvm.lifetime.end.p0(i64 4, ptr %32) #2
  call void @llvm.lifetime.end.p0(i64 4, ptr %31) #2
  call void @llvm.lifetime.end.p0(i64 4, ptr %30) #2
  call void @llvm.lifetime.end.p0(i64 4, ptr %29) #2
  call void @llvm.lifetime.end.p0(i64 4, ptr %28) #2
  br label %196

196:                                              ; preds = %88
  %197 = load i32, ptr %22, align 4
  %198 = add i32 %197, 2
  store i32 %198, ptr %22, align 4
  br label %83, !llvm.loop !24

199:                                              ; preds = %83
  %200 = load i32, ptr %22, align 4
  %201 = load i32, ptr %11, align 4
  %202 = sub i32 %201, 1
  %203 = icmp eq i32 %200, %202
  br i1 %203, label %204, label %272

204:                                              ; preds = %199
  call void @llvm.lifetime.start.p0(i64 4, ptr %34) #2
  %205 = load ptr, ptr %25, align 8
  %206 = load i8, ptr %205, align 1
  %207 = zext i8 %206 to i32
  %208 = sub nsw i32 %207, 128
  store i32 %208, ptr %34, align 4
  call void @llvm.lifetime.start.p0(i64 4, ptr %35) #2
  %209 = load ptr, ptr %26, align 8
  %210 = load i8, ptr %209, align 1
  %211 = zext i8 %210 to i32
  %212 = sub nsw i32 %211, 128
  store i32 %212, ptr %35, align 4
  call void @llvm.lifetime.start.p0(i64 4, ptr %36) #2
  %213 = load i32, ptr %35, align 4
  %214 = load ptr, ptr %21, align 8
  %215 = getelementptr inbounds nuw %struct.YUV2RGBParam, ptr %214, i32 0, i32 2
  %216 = load i16, ptr %215, align 2
  %217 = sext i16 %216 to i32
  %218 = mul nsw i32 %213, %217
  store i32 %218, ptr %36, align 4
  call void @llvm.lifetime.start.p0(i64 4, ptr %37) #2
  %219 = load i32, ptr %34, align 4
  %220 = load ptr, ptr %21, align 8
  %221 = getelementptr inbounds nuw %struct.YUV2RGBParam, ptr %220, i32 0, i32 3
  %222 = load i16, ptr %221, align 2
  %223 = sext i16 %222 to i32
  %224 = mul nsw i32 %219, %223
  %225 = load i32, ptr %35, align 4
  %226 = load ptr, ptr %21, align 8
  %227 = getelementptr inbounds nuw %struct.YUV2RGBParam, ptr %226, i32 0, i32 4
  %228 = load i16, ptr %227, align 2
  %229 = sext i16 %228 to i32
  %230 = mul nsw i32 %225, %229
  %231 = add nsw i32 %224, %230
  store i32 %231, ptr %37, align 4
  call void @llvm.lifetime.start.p0(i64 4, ptr %38) #2
  %232 = load i32, ptr %34, align 4
  %233 = load ptr, ptr %21, align 8
  %234 = getelementptr inbounds nuw %struct.YUV2RGBParam, ptr %233, i32 0, i32 5
  %235 = load i16, ptr %234, align 2
  %236 = sext i16 %235 to i32
  %237 = mul nsw i32 %232, %236
  store i32 %237, ptr %38, align 4
  call void @llvm.lifetime.start.p0(i64 4, ptr %39) #2
  %238 = load ptr, ptr %24, align 8
  %239 = getelementptr inbounds i8, ptr %238, i64 0
  %240 = load i8, ptr %239, align 1
  %241 = zext i8 %240 to i32
  %242 = load ptr, ptr %21, align 8
  %243 = getelementptr inbounds nuw %struct.YUV2RGBParam, ptr %242, i32 0, i32 0
  %244 = load i8, ptr %243, align 2
  %245 = zext i8 %244 to i32
  %246 = sub nsw i32 %241, %245
  %247 = load ptr, ptr %21, align 8
  %248 = getelementptr inbounds nuw %struct.YUV2RGBParam, ptr %247, i32 0, i32 1
  %249 = load i16, ptr %248, align 2
  %250 = sext i16 %249 to i32
  %251 = mul nsw i32 %246, %250
  store i32 %251, ptr %39, align 4
  %252 = load i32, ptr %39, align 4
  %253 = load i32, ptr %36, align 4
  %254 = add nsw i32 %252, %253
  %255 = call zeroext i8 @clampU8(i32 noundef %254)
  %256 = load ptr, ptr %27, align 8
  %257 = getelementptr inbounds i8, ptr %256, i64 0
  store i8 %255, ptr %257, align 1
  %258 = load i32, ptr %39, align 4
  %259 = load i32, ptr %37, align 4
  %260 = add nsw i32 %258, %259
  %261 = call zeroext i8 @clampU8(i32 noundef %260)
  %262 = load ptr, ptr %27, align 8
  %263 = getelementptr inbounds i8, ptr %262, i64 1
  store i8 %261, ptr %263, align 1
  %264 = load i32, ptr %39, align 4
  %265 = load i32, ptr %38, align 4
  %266 = add nsw i32 %264, %265
  %267 = call zeroext i8 @clampU8(i32 noundef %266)
  %268 = load ptr, ptr %27, align 8
  %269 = getelementptr inbounds i8, ptr %268, i64 2
  store i8 %267, ptr %269, align 1
  %270 = load ptr, ptr %27, align 8
  %271 = getelementptr inbounds i8, ptr %270, i64 3
  store ptr %271, ptr %27, align 8
  call void @llvm.lifetime.end.p0(i64 4, ptr %39) #2
  call void @llvm.lifetime.end.p0(i64 4, ptr %38) #2
  call void @llvm.lifetime.end.p0(i64 4, ptr %37) #2
  call void @llvm.lifetime.end.p0(i64 4, ptr %36) #2
  call void @llvm.lifetime.end.p0(i64 4, ptr %35) #2
  call void @llvm.lifetime.end.p0(i64 4, ptr %34) #2
  br label %272

272:                                              ; preds = %204, %199
  call void @llvm.lifetime.end.p0(i64 8, ptr %27) #2
  call void @llvm.lifetime.end.p0(i64 8, ptr %26) #2
  call void @llvm.lifetime.end.p0(i64 8, ptr %25) #2
  call void @llvm.lifetime.end.p0(i64 8, ptr %24) #2
  br label %273

273:                                              ; preds = %272
  %274 = load i32, ptr %23, align 4
  %275 = add i32 %274, 1
  store i32 %275, ptr %23, align 4
  br label %51, !llvm.loop !25

276:                                              ; preds = %51
  call void @llvm.lifetime.end.p0(i64 4, ptr %23) #2
  call void @llvm.lifetime.end.p0(i64 4, ptr %22) #2
  call void @llvm.lifetime.end.p0(i64 8, ptr %21) #2
  ret void
}