; Function Attrs: nofree norecurse nosync nounwind memory(argmem: readwrite) uwtable
define hidden void @yuv422_rgb24_std(i32 noundef %0, i32 noundef %1, ptr noundef readonly captures(none) %2, ptr noundef readonly captures(none) %3, ptr noundef readonly captures(none) %4, i32 noundef %5, i32 noundef %6, ptr noundef writeonly captures(none) %7, i32 noundef %8, i32 noundef %9) local_unnamed_addr #0 {
  %.not = icmp eq i32 %1, 0
  br i1 %.not, label %._crit_edge103, label %.lr.ph102

.lr.ph102:                                        ; preds = %10
  %11 = zext i32 %9 to i64
  %12 = getelementptr inbounds nuw [5 x %struct.YUV2RGBParam], ptr @YUV2RGB, i64 0, i64 %11
  %13 = add i32 %0, -1
  %.not105 = icmp eq i32 %13, 0
  %14 = getelementptr inbounds nuw i8, ptr %12, i64 4
  %15 = getelementptr inbounds nuw i8, ptr %12, i64 6
  %16 = getelementptr inbounds nuw i8, ptr %12, i64 8
  %17 = getelementptr inbounds nuw i8, ptr %12, i64 10
  %18 = getelementptr inbounds nuw i8, ptr %12, i64 2
  %19 = load i16, ptr %14, align 4
  %20 = zext i16 %19 to i32
  %21 = load i16, ptr %15, align 2
  %22 = zext i16 %21 to i32
  %23 = load i16, ptr %16, align 4
  %24 = zext i16 %23 to i32
  %25 = load i16, ptr %17, align 2
  %26 = zext i16 %25 to i32
  %27 = load i8, ptr %12, align 4
  %28 = zext i8 %27 to i32
  %29 = load i16, ptr %18, align 2
  %30 = zext i16 %29 to i32
  br i1 %.not105, label %.lr.ph102.split.split.us, label %.lr.ph102.split.us

.lr.ph102.split.us:                               ; preds = %.lr.ph102
  %31 = and i32 %0, -2
  %wide.trip.count = zext i32 %1 to i64
  %32 = icmp eq i32 %31, %13
  %33 = zext i16 %19 to i32
  %34 = zext i16 %21 to i32
  %35 = zext i16 %23 to i32
  %36 = zext i16 %25 to i32
  br label %.lr.ph.us

.lr.ph.us:                                        ; preds = %85, %.lr.ph102.split.us
  %indvars.iv = phi i64 [ %indvars.iv.next, %85 ], [ 0, %.lr.ph102.split.us ]
  %37 = trunc nuw i64 %indvars.iv to i32
  %38 = mul i32 %5, %37
  %39 = zext i32 %38 to i64
  %40 = getelementptr inbounds nuw i8, ptr %2, i64 %39
  %41 = mul i32 %6, %37
  %42 = zext i32 %41 to i64
  %43 = getelementptr inbounds nuw i8, ptr %3, i64 %42
  %44 = getelementptr inbounds nuw i8, ptr %4, i64 %42
  %45 = mul i32 %8, %37
  %46 = zext i32 %45 to i64
  %47 = getelementptr inbounds nuw i8, ptr %7, i64 %46
  br label %86

48:                                               ; preds = %._crit_edge.us
  %49 = load i8, ptr %152, align 1
  %50 = zext i8 %49 to i32
  %51 = add nsw i32 %50, -128
  %52 = load i8, ptr %153, align 1
  %53 = zext i8 %52 to i32
  %54 = add nsw i32 %53, -128
  %55 = mul nsw i32 %54, %33
  %56 = mul nsw i32 %51, %34
  %57 = mul nsw i32 %54, %35
  %58 = mul nsw i32 %51, %36
  %59 = load i8, ptr %151, align 1
  %60 = zext i8 %59 to i32
  %61 = sub nsw i32 %60, %28
  %62 = mul nsw i32 %61, %30
  %63 = add nsw i32 %62, 8192
  %64 = add nsw i32 %63, %55
  %65 = lshr i32 %64, 6
  %66 = and i32 %65, 511
  %67 = zext nneg i32 %66 to i64
  %68 = getelementptr inbounds nuw [512 x i8], ptr @clampU8.lut, i64 0, i64 %67
  %69 = load i8, ptr %68, align 1
  store i8 %69, ptr %150, align 1
  %70 = add nsw i32 %63, %56
  %71 = add nsw i32 %70, %57
  %72 = lshr i32 %71, 6
  %73 = and i32 %72, 511
  %74 = zext nneg i32 %73 to i64
  %75 = getelementptr inbounds nuw [512 x i8], ptr @clampU8.lut, i64 0, i64 %74
  %76 = load i8, ptr %75, align 1
  %77 = getelementptr inbounds nuw i8, ptr %.08890.us, i64 7
  store i8 %76, ptr %77, align 1
  %78 = add nsw i32 %63, %58
  %79 = lshr i32 %78, 6
  %80 = and i32 %79, 511
  %81 = zext nneg i32 %80 to i64
  %82 = getelementptr inbounds nuw [512 x i8], ptr @clampU8.lut, i64 0, i64 %81
  %83 = load i8, ptr %82, align 1
  %84 = getelementptr inbounds nuw i8, ptr %.08890.us, i64 8
  store i8 %83, ptr %84, align 1
  br label %85

85:                                               ; preds = %48, %._crit_edge.us
  %indvars.iv.next = add nuw nsw i64 %indvars.iv, 1
  %exitcond.not = icmp eq i64 %indvars.iv.next, %wide.trip.count
  br i1 %exitcond.not, label %._crit_edge103, label %.lr.ph.us, !llvm.loop !24

86:                                               ; preds = %.lr.ph.us, %86
  %.094.us = phi i32 [ 0, %.lr.ph.us ], [ %154, %86 ]
  %.08593.us = phi ptr [ %40, %.lr.ph.us ], [ %151, %86 ]
  %.08692.us = phi ptr [ %43, %.lr.ph.us ], [ %152, %86 ]
  %.08791.us = phi ptr [ %44, %.lr.ph.us ], [ %153, %86 ]
  %.08890.us = phi ptr [ %47, %.lr.ph.us ], [ %150, %86 ]
  %87 = load i8, ptr %.08692.us, align 1
  %88 = zext i8 %87 to i32
  %89 = add nsw i32 %88, -128
  %90 = load i8, ptr %.08791.us, align 1
  %91 = zext i8 %90 to i32
  %92 = add nsw i32 %91, -128
  %93 = mul nsw i32 %92, %20
  %94 = mul nsw i32 %89, %22
  %95 = mul nsw i32 %92, %24
  %96 = add nsw i32 %95, %94
  %97 = mul nsw i32 %89, %26
  %98 = load i8, ptr %.08593.us, align 1
  %99 = zext i8 %98 to i32
  %100 = sub nsw i32 %99, %28
  %101 = mul nsw i32 %100, %30
  %102 = add nsw i32 %101, 8192
  %103 = add nsw i32 %102, %93
  %104 = lshr i32 %103, 6
  %105 = and i32 %104, 511
  %106 = zext nneg i32 %105 to i64
  %107 = getelementptr inbounds nuw [512 x i8], ptr @clampU8.lut, i64 0, i64 %106
  %108 = load i8, ptr %107, align 1
  store i8 %108, ptr %.08890.us, align 1
  %109 = add nsw i32 %102, %96
  %110 = lshr i32 %109, 6
  %111 = and i32 %110, 511
  %112 = zext nneg i32 %111 to i64
  %113 = getelementptr inbounds nuw [512 x i8], ptr @clampU8.lut, i64 0, i64 %112
  %114 = load i8, ptr %113, align 1
  %115 = getelementptr inbounds nuw i8, ptr %.08890.us, i64 1
  store i8 %114, ptr %115, align 1
  %116 = add nsw i32 %102, %97
  %117 = lshr i32 %116, 6
  %118 = and i32 %117, 511
  %119 = zext nneg i32 %118 to i64
  %120 = getelementptr inbounds nuw [512 x i8], ptr @clampU8.lut, i64 0, i64 %119
  %121 = load i8, ptr %120, align 1
  %122 = getelementptr inbounds nuw i8, ptr %.08890.us, i64 2
  store i8 %121, ptr %122, align 1
  %123 = getelementptr inbounds nuw i8, ptr %.08890.us, i64 3
  %124 = getelementptr inbounds nuw i8, ptr %.08593.us, i64 2
  %125 = load i8, ptr %124, align 1
  %126 = zext i8 %125 to i32
  %127 = sub nsw i32 %126, %28
  %128 = mul nsw i32 %127, %30
  %129 = add nsw i32 %128, 8192
  %130 = add nsw i32 %129, %93
  %131 = lshr i32 %130, 6
  %132 = and i32 %131, 511
  %133 = zext nneg i32 %132 to i64
  %134 = getelementptr inbounds nuw [512 x i8], ptr @clampU8.lut, i64 0, i64 %133
  %135 = load i8, ptr %134, align 1
  store i8 %135, ptr %123, align 1
  %136 = add nsw i32 %129, %96
  %137 = lshr i32 %136, 6
  %138 = and i32 %137, 511
  %139 = zext nneg i32 %138 to i64
  %140 = getelementptr inbounds nuw [512 x i8], ptr @clampU8.lut, i64 0, i64 %139
  %141 = load i8, ptr %140, align 1
  %142 = getelementptr inbounds nuw i8, ptr %.08890.us, i64 4
  store i8 %141, ptr %142, align 1
  %143 = add nsw i32 %129, %97
  %144 = lshr i32 %143, 6
  %145 = and i32 %144, 511
  %146 = zext nneg i32 %145 to i64
  %147 = getelementptr inbounds nuw [512 x i8], ptr @clampU8.lut, i64 0, i64 %146
  %148 = load i8, ptr %147, align 1
  %149 = getelementptr inbounds nuw i8, ptr %.08890.us, i64 5
  store i8 %148, ptr %149, align 1
  %150 = getelementptr inbounds nuw i8, ptr %.08890.us, i64 6
  %151 = getelementptr inbounds nuw i8, ptr %.08593.us, i64 4
  %152 = getelementptr inbounds nuw i8, ptr %.08692.us, i64 4
  %153 = getelementptr inbounds nuw i8, ptr %.08791.us, i64 4
  %154 = add nuw i32 %.094.us, 2
  %155 = icmp ult i32 %154, %13
  br i1 %155, label %86, label %._crit_edge.us, !llvm.loop !25

._crit_edge.us:                                   ; preds = %86
  br i1 %32, label %48, label %85

.lr.ph102.split.split.us:                         ; preds = %.lr.ph102
  %wide.trip.count115 = zext i32 %1 to i64
  br label %156

156:                                              ; preds = %156, %.lr.ph102.split.split.us
  %indvars.iv112 = phi i64 [ %indvars.iv.next113, %156 ], [ 0, %.lr.ph102.split.split.us ]
  %157 = trunc nuw i64 %indvars.iv112 to i32
  %158 = mul i32 %5, %157
  %159 = zext i32 %158 to i64
  %160 = getelementptr inbounds nuw i8, ptr %2, i64 %159
  %161 = mul i32 %6, %157
  %162 = zext i32 %161 to i64
  %163 = getelementptr inbounds nuw i8, ptr %3, i64 %162
  %164 = getelementptr inbounds nuw i8, ptr %4, i64 %162
  %165 = mul i32 %8, %157
  %166 = zext i32 %165 to i64
  %167 = getelementptr inbounds nuw i8, ptr %7, i64 %166
  %168 = load i8, ptr %163, align 1
  %169 = zext i8 %168 to i32
  %170 = add nsw i32 %169, -128
  %171 = load i8, ptr %164, align 1
  %172 = zext i8 %171 to i32
  %173 = add nsw i32 %172, -128
  %174 = mul nsw i32 %173, %20
  %175 = mul nsw i32 %170, %22
  %176 = mul nsw i32 %173, %24
  %177 = mul nsw i32 %170, %26
  %178 = load i8, ptr %160, align 1
  %179 = zext i8 %178 to i32
  %180 = sub nsw i32 %179, %28
  %181 = mul nsw i32 %180, %30
  %182 = add nsw i32 %181, 8192
  %183 = add nsw i32 %182, %174
  %184 = lshr i32 %183, 6
  %185 = and i32 %184, 511
  %186 = zext nneg i32 %185 to i64
  %187 = getelementptr inbounds nuw [512 x i8], ptr @clampU8.lut, i64 0, i64 %186
  %188 = load i8, ptr %187, align 1
  store i8 %188, ptr %167, align 1
  %189 = add nsw i32 %182, %175
  %190 = add nsw i32 %189, %176
  %191 = lshr i32 %190, 6
  %192 = and i32 %191, 511
  %193 = zext nneg i32 %192 to i64
  %194 = getelementptr inbounds nuw [512 x i8], ptr @clampU8.lut, i64 0, i64 %193
  %195 = load i8, ptr %194, align 1
  %196 = getelementptr inbounds nuw i8, ptr %167, i64 1
  store i8 %195, ptr %196, align 1
  %197 = add nsw i32 %182, %177
  %198 = lshr i32 %197, 6
  %199 = and i32 %198, 511
  %200 = zext nneg i32 %199 to i64
  %201 = getelementptr inbounds nuw [512 x i8], ptr @clampU8.lut, i64 0, i64 %200
  %202 = load i8, ptr %201, align 1
  %203 = getelementptr inbounds nuw i8, ptr %167, i64 2
  store i8 %202, ptr %203, align 1
  %indvars.iv.next113 = add nuw nsw i64 %indvars.iv112, 1
  %exitcond116.not = icmp eq i64 %indvars.iv.next113, %wide.trip.count115
  br i1 %exitcond116.not, label %._crit_edge103, label %156, !llvm.loop !24

._crit_edge103:                                   ; preds = %85, %156, %10
  ret void
}